target datalayout = "e-m:e-p270:32:32-p271:32:32-p272:64:64-i64:64-i128:128-f80:128-n8:16:32:64-S128"
target triple = "x86_64-pc-linux-gnu"

%struct.OnigCaptureTreeNodeStruct = type { i32, i32, i32, i32, i32, ptr }

; Function Attrs: nounwind uwtable
define internal void @history_tree_clear(ptr noundef %0) #0 {
  %2 = alloca ptr, align 8
  %3 = alloca i32, align 4
  %4 = alloca i32, align 4
  store ptr %0, ptr %2, align 8, !tbaa !34
  call void @llvm.lifetime.start.p0(i64 4, ptr %3) #9
  %5 = load ptr, ptr %2, align 8, !tbaa !34
  %6 = icmp eq ptr %5, null
  br i1 %6, label %7, label %8

7:                                                ; preds = %1
  store i32 1, ptr %4, align 4
  br label %62

8:                                                ; preds = %1
  store i32 0, ptr %3, align 4, !tbaa !9
  br label %9

9:                                                ; preds = %33, %8
  %10 = load i32, ptr %3, align 4, !tbaa !9
  %11 = load ptr, ptr %2, align 8, !tbaa !34
  %12 = getelementptr inbounds nuw %struct.OnigCaptureTreeNodeStruct, ptr %11, i32 0, i32 4
  %13 = load i32, ptr %12, align 8, !tbaa !39
  %14 = icmp slt i32 %10, %13
  br i1 %14, label %15, label %36

15:                                               ; preds = %9
  %16 = load ptr, ptr %2, align 8, !tbaa !34
  %17 = getelementptr inbounds nuw %struct.OnigCaptureTreeNodeStruct, ptr %16, i32 0, i32 5
  %18 = load ptr, ptr %17, align 8, !tbaa !40
  %19 = load i32, ptr %3, align 4, !tbaa !9
  %20 = sext i32 %19 to i64
  %21 = getelementptr inbounds ptr, ptr %18, i64 %20
  %22 = load ptr, ptr %21, align 8, !tbaa !34
  %23 = icmp ne ptr %22, null
  br i1 %23, label %24, label %32

24:                                               ; preds = %15
  %25 = load ptr, ptr %2, align 8, !tbaa !34
  %26 = getelementptr inbounds nuw %struct.OnigCaptureTreeNodeStruct, ptr %25, i32 0, i32 5
  %27 = load ptr, ptr %26, align 8, !tbaa !40
  %28 = load i32, ptr %3, align 4, !tbaa !9
  %29 = sext i32 %28 to i64
  %30 = getelementptr inbounds ptr, ptr %27, i64 %29
  %31 = load ptr, ptr %30, align 8, !tbaa !34
  call void @history_tree_free(ptr noundef %31)
  br label %32

32:                                               ; preds = %24, %15
  br label %33

33:                                               ; preds = %32
  %34 = load i32, ptr %3, align 4, !tbaa !9
  %35 = add nsw i32 %34, 1
  store i32 %35, ptr %3, align 4, !tbaa !9
  br label %9, !llvm.loop !218

36:                                               ; preds = %9
  store i32 0, ptr %3, align 4, !tbaa !9
  br label %37

37:                                               ; preds = %50, %36
  %38 = load i32, ptr %3, align 4, !tbaa !9
  %39 = load ptr, ptr %2, align 8, !tbaa !34
  %40 = getelementptr inbounds nuw %struct.OnigCaptureTreeNodeStruct, ptr %39, i32 0, i32 3
  %41 = load i32, ptr %40, align 4, !tbaa !219
  %42 = icmp slt i32 %38, %41
  br i1 %42, label %43, label %53

43:                                               ; preds = %37
  %44 = load ptr, ptr %2, align 8, !tbaa !34
  %45 = getelementptr inbounds nuw %struct.OnigCaptureTreeNodeStruct, ptr %44, i32 0, i32 5
  %46 = load ptr, ptr %45, align 8, !tbaa !40
  %47 = load i32, ptr %3, align 4, !tbaa !9
  %48 = sext i32 %47 to i64
  %49 = getelementptr inbounds ptr, ptr %46, i64 %48
  store ptr null, ptr %49, align 8, !tbaa !34
  br label %50

50:                                               ; preds = %43
  %51 = load i32, ptr %3, align 4, !tbaa !9
  %52 = add nsw i32 %51, 1
  store i32 %52, ptr %3, align 4, !tbaa !9
  br label %37, !llvm.loop !220

53:                                               ; preds = %37
  %54 = load ptr, ptr %2, align 8, !tbaa !34
  %55 = getelementptr inbounds nuw %struct.OnigCaptureTreeNodeStruct, ptr %54, i32 0, i32 4
  store i32 0, ptr %55, align 8, !tbaa !39
  %56 = load ptr, ptr %2, align 8, !tbaa !34
  %57 = getelementptr inbounds nuw %struct.OnigCaptureTreeNodeStruct, ptr %56, i32 0, i32 1
  store i32 -1, ptr %57, align 4, !tbaa !35
  %58 = load ptr, ptr %2, align 8, !tbaa !34
  %59 = getelementptr inbounds nuw %struct.OnigCaptureTreeNodeStruct, ptr %58, i32 0, i32 2
  store i32 -1, ptr %59, align 8, !tbaa !38
  %60 = load ptr, ptr %2, align 8, !tbaa !34
  %61 = getelementptr inbounds nuw %struct.OnigCaptureTreeNodeStruct, ptr %60, i32 0, i32 0
  store i32 -1, ptr %61, align 8, !tbaa !126
  store i32 0, ptr %4, align 4
  br label %62

62:                                               ; preds = %53, %7
  call void @llvm.lifetime.end.p0(i64 4, ptr %3) #9
  %63 = load i32, ptr %4, align 4
  switch i32 %63, label %65 [
    i32 0, label %64
    i32 1, label %64
  ]

64:                                               ; preds = %62, %62
  ret void

65:                                               ; preds = %62
  unreachable
}